target datalayout = "e-m:e-p270:32:32-p271:32:32-p272:64:64-i64:64-i128:128-f80:128-n8:16:32:64-S128"
target triple = "x86_64-pc-linux-gnu"

@sigwinch_received = internal global i32 0, align 4
@sigwinch_ohandler = internal global ptr null, align 8

; Function Attrs: nounwind uwtable
define internal void @readline_sigwinch_handler(i32 noundef %0) #0 {
  %2 = alloca i32, align 4
  store i32 %0, ptr %2, align 4, !tbaa !8
  store volatile i32 1, ptr @sigwinch_received, align 4, !tbaa !8
  %3 = load ptr, ptr @sigwinch_ohandler, align 8, !tbaa !20
  %4 = icmp ne ptr %3, null
  br i1 %4, label %5, label %14

5:                                                ; preds = %1
  %6 = load ptr, ptr @sigwinch_ohandler, align 8, !tbaa !20
  %7 = icmp ne ptr %6, inttoptr (i64 1 to ptr)
  br i1 %7, label %8, label %14

8:                                                ; preds = %5
  %9 = load ptr, ptr @sigwinch_ohandler, align 8, !tbaa !20
  %10 = icmp ne ptr %9, null
  br i1 %10, label %11, label %14

11:                                               ; preds = %8
  %12 = load ptr, ptr @sigwinch_ohandler, align 8, !tbaa !20
  %13 = load i32, ptr %2, align 4, !tbaa !8
  call void %12(i32 noundef %13)
  br label %14

14:                                               ; preds = %11, %8, %5, %1
  ret void
}