; Function Attrs: nounwind uwtable
define internal void @readline_sigwinch_handler(i32 noundef %0) #0 {
  store volatile i32 1, ptr @sigwinch_received, align 4, !tbaa !17
  %2 = load ptr, ptr @sigwinch_ohandler, align 8, !tbaa !19
  %switch = icmp ult ptr %2, inttoptr (i64 2 to ptr)
  br i1 %switch, label %4, label %3

3:                                                ; preds = %1
  tail call void %2(i32 noundef %0) #14
  br label %4

4:                                                ; preds = %1, %3
  ret void
}